target datalayout = "e-m:e-p270:32:32-p271:32:32-p272:64:64-i64:64-i128:128-f80:128-n8:16:32:64-S128"
target triple = "x86_64-pc-linux-gnu"

%struct.ParamListInfoData = type { ptr, ptr, ptr, ptr, ptr, ptr, ptr, i32, [0 x %struct.ParamExternData] }
%struct.ParamExternData = type { i64, i8, i16, i32 }

; Function Attrs: nounwind uwtable
define dso_local ptr @makeParamList(i32 noundef %0) #0 {
  %2 = alloca i32, align 4
  %3 = alloca ptr, align 8
  %4 = alloca i64, align 8
  store i32 %0, ptr %2, align 4
  call void @llvm.lifetime.start.p0(i64 8, ptr %3) #5
  call void @llvm.lifetime.start.p0(i64 8, ptr %4) #5
  %5 = load i32, ptr %2, align 4
  %6 = sext i32 %5 to i64
  %7 = mul i64 %6, 16
  %8 = add i64 64, %7
  store i64 %8, ptr %4, align 8
  %9 = load i64, ptr %4, align 8
  %10 = call ptr @palloc(i64 noundef %9)
  store ptr %10, ptr %3, align 8
  %11 = load ptr, ptr %3, align 8
  %12 = getelementptr inbounds nuw %struct.ParamListInfoData, ptr %11, i32 0, i32 0
  store ptr null, ptr %12, align 8
  %13 = load ptr, ptr %3, align 8
  %14 = getelementptr inbounds nuw %struct.ParamListInfoData, ptr %13, i32 0, i32 1
  store ptr null, ptr %14, align 8
  %15 = load ptr, ptr %3, align 8
  %16 = getelementptr inbounds nuw %struct.ParamListInfoData, ptr %15, i32 0, i32 2
  store ptr null, ptr %16, align 8
  %17 = load ptr, ptr %3, align 8
  %18 = getelementptr inbounds nuw %struct.ParamListInfoData, ptr %17, i32 0, i32 3
  store ptr null, ptr %18, align 8
  %19 = load ptr, ptr %3, align 8
  %20 = getelementptr inbounds nuw %struct.ParamListInfoData, ptr %19, i32 0, i32 4
  store ptr @paramlist_parser_setup, ptr %20, align 8
  %21 = load ptr, ptr %3, align 8
  %22 = load ptr, ptr %3, align 8
  %23 = getelementptr inbounds nuw %struct.ParamListInfoData, ptr %22, i32 0, i32 5
  store ptr %21, ptr %23, align 8
  %24 = load ptr, ptr %3, align 8
  %25 = getelementptr inbounds nuw %struct.ParamListInfoData, ptr %24, i32 0, i32 6
  store ptr null, ptr %25, align 8
  %26 = load i32, ptr %2, align 4
  %27 = load ptr, ptr %3, align 8
  %28 = getelementptr inbounds nuw %struct.ParamListInfoData, ptr %27, i32 0, i32 7
  store i32 %26, ptr %28, align 8
  %29 = load ptr, ptr %3, align 8
  call void @llvm.lifetime.end.p0(i64 8, ptr %4) #5
  call void @llvm.lifetime.end.p0(i64 8, ptr %3) #5
  ret ptr %29
}