; Function Attrs: nounwind uwtable
define dso_local noundef ptr @makeParamList(i32 noundef %0) local_unnamed_addr #0 {
  %2 = sext i32 %0 to i64
  %3 = shl nsw i64 %2, 4
  %4 = add nsw i64 %3, 64
  %5 = tail call ptr @palloc(i64 noundef %4) #7
  %6 = getelementptr inbounds nuw i8, ptr %5, i64 32
  tail call void @llvm.memset.p0.i64(ptr noundef nonnull align 8 dereferenceable(32) %5, i8 0, i64 32, i1 false)
  store ptr @paramlist_parser_setup, ptr %6, align 8
  %7 = getelementptr inbounds nuw i8, ptr %5, i64 40
  store ptr %5, ptr %7, align 8
  %8 = getelementptr inbounds nuw i8, ptr %5, i64 48
  store ptr null, ptr %8, align 8
  %9 = getelementptr inbounds nuw i8, ptr %5, i64 56
  store i32 %0, ptr %9, align 8
  ret ptr %5
}